target datalayout = "e-m:e-p270:32:32-p271:32:32-p272:64:64-i64:64-i128:128-f80:128-n8:16:32:64-S128"
target triple = "x86_64-pc-linux-gnu"

%struct.FmgrInfo = type { ptr, i32, i16, i8, i8, i8, ptr, ptr, ptr }
%struct.TupleDescData = type { i32, i32, i32, i32, ptr, [0 x %struct.CompactAttribute] }
%struct.CompactAttribute = type { i32, i16, i8, i8, i8, i8, i8, i8, i8 }
%struct.ExprEvalRowtypeCache = type { ptr, i64 }
%struct.TypeCacheEntry = type { i32, i32, i16, i8, i8, i8, i8, i32, i32, i32, i32, i32, i32, i32, i32, i32, i32, i32, i32, i32, i32, %struct.FmgrInfo, %struct.FmgrInfo, %struct.FmgrInfo, %struct.FmgrInfo, ptr, i64, ptr, i32, i32, %struct.FmgrInfo, %struct.FmgrInfo, %struct.FmgrInfo, ptr, i32, i32, ptr, i32, ptr, ptr }

@.str.1 = private unnamed_addr constant [17 x i8] c"execExprInterp.c\00", align 1
@.str.44 = private unnamed_addr constant [25 x i8] c"type %s is not composite\00", align 1
@__func__.get_cached_rowtype = private unnamed_addr constant [19 x i8] c"get_cached_rowtype\00", align 1

; Function Attrs: nounwind uwtable
define internal ptr @get_cached_rowtype(i32 noundef %0, i32 noundef %1, ptr noundef %2, ptr noundef %3) #0 {
  %5 = alloca ptr, align 8
  %6 = alloca i32, align 4
  %7 = alloca i32, align 4
  %8 = alloca ptr, align 8
  %9 = alloca ptr, align 8
  %10 = alloca ptr, align 8
  %11 = alloca ptr, align 8
  store i32 %0, ptr %6, align 4
  store i32 %1, ptr %7, align 4
  store ptr %2, ptr %8, align 8
  store ptr %3, ptr %9, align 8
  %12 = load i32, ptr %6, align 4
  %13 = icmp ne i32 %12, 2249
  br i1 %13, label %14, label %80

14:                                               ; preds = %4
  call void @llvm.lifetime.start.p0(i64 8, ptr %10) #11
  %15 = load ptr, ptr %8, align 8
  %16 = getelementptr inbounds nuw %struct.ExprEvalRowtypeCache, ptr %15, i32 0, i32 0
  %17 = load ptr, ptr %16, align 8
  store ptr %17, ptr %10, align 8
  %18 = load ptr, ptr %10, align 8
  %19 = icmp eq ptr %18, null
  br i1 %19, label %33, label %20

20:                                               ; preds = %14
  %21 = load ptr, ptr %8, align 8
  %22 = getelementptr inbounds nuw %struct.ExprEvalRowtypeCache, ptr %21, i32 0, i32 1
  %23 = load i64, ptr %22, align 8
  %24 = icmp eq i64 %23, 0
  br i1 %24, label %33, label %25

25:                                               ; preds = %20
  %26 = load ptr, ptr %10, align 8
  %27 = getelementptr inbounds nuw %struct.TypeCacheEntry, ptr %26, i32 0, i32 26
  %28 = load i64, ptr %27, align 8
  %29 = load ptr, ptr %8, align 8
  %30 = getelementptr inbounds nuw %struct.ExprEvalRowtypeCache, ptr %29, i32 0, i32 1
  %31 = load i64, ptr %30, align 8
  %32 = icmp ne i64 %28, %31
  br label %33

33:                                               ; preds = %25, %20, %14
  %34 = phi i1 [ true, %20 ], [ true, %14 ], [ %32, %25 ]
  %35 = zext i1 %34 to i32
  %36 = icmp ne i32 %35, 0
  %37 = zext i1 %36 to i32
  %38 = sext i32 %37 to i64
  %39 = call i64 @llvm.expect.i64(i64 %38, i64 0)
  %40 = icmp ne i64 %39, 0
  br i1 %40, label %41, label %76

41:                                               ; preds = %33
  %42 = load i32, ptr %6, align 4
  %43 = call ptr @lookup_type_cache(i32 noundef %42, i32 noundef 256)
  store ptr %43, ptr %10, align 8
  %44 = load ptr, ptr %10, align 8
  %45 = getelementptr inbounds nuw %struct.TypeCacheEntry, ptr %44, i32 0, i32 25
  %46 = load ptr, ptr %45, align 8
  %47 = icmp eq ptr %46, null
  br i1 %47, label %48, label %62

48:                                               ; preds = %41
  br label %49

49:                                               ; preds = %48
  br i1 true, label %50, label %52

50:                                               ; preds = %49
  %51 = call zeroext i1 @errstart_cold(i32 noundef 21, ptr noundef null) #12
  br i1 %51, label %54, label %59

52:                                               ; preds = %49
  %53 = call zeroext i1 @errstart(i32 noundef 21, ptr noundef null)
  br i1 %53, label %54, label %59

54:                                               ; preds = %52, %50
  %55 = call i32 @errcode(i32 noundef 151027844)
  %56 = load i32, ptr %6, align 4
  %57 = call ptr @format_type_be(i32 noundef %56)
  %58 = call i32 (ptr, ...) @errmsg(ptr noundef @.str.44, ptr noundef %57)
  call void @errfinish(ptr noundef @.str.1, i32 noundef 2423, ptr noundef @__func__.get_cached_rowtype)
  br label %59

59:                                               ; preds = %54, %52, %50
  unreachable

60:                                               ; No predecessors!
  br label %61

61:                                               ; preds = %60
  br label %62

62:                                               ; preds = %61, %41
  %63 = load ptr, ptr %10, align 8
  %64 = load ptr, ptr %8, align 8
  %65 = getelementptr inbounds nuw %struct.ExprEvalRowtypeCache, ptr %64, i32 0, i32 0
  store ptr %63, ptr %65, align 8
  %66 = load ptr, ptr %10, align 8
  %67 = getelementptr inbounds nuw %struct.TypeCacheEntry, ptr %66, i32 0, i32 26
  %68 = load i64, ptr %67, align 8
  %69 = load ptr, ptr %8, align 8
  %70 = getelementptr inbounds nuw %struct.ExprEvalRowtypeCache, ptr %69, i32 0, i32 1
  store i64 %68, ptr %70, align 8
  %71 = load ptr, ptr %9, align 8
  %72 = icmp ne ptr %71, null
  br i1 %72, label %73, label %75

73:                                               ; preds = %62
  %74 = load ptr, ptr %9, align 8
  store i8 1, ptr %74, align 1
  br label %75

75:                                               ; preds = %73, %62
  br label %76

76:                                               ; preds = %75, %33
  %77 = load ptr, ptr %10, align 8
  %78 = getelementptr inbounds nuw %struct.TypeCacheEntry, ptr %77, i32 0, i32 25
  %79 = load ptr, ptr %78, align 8
  store ptr %79, ptr %5, align 8
  call void @llvm.lifetime.end.p0(i64 8, ptr %10) #11
  br label %137

80:                                               ; preds = %4
  call void @llvm.lifetime.start.p0(i64 8, ptr %11) #11
  %81 = load ptr, ptr %8, align 8
  %82 = getelementptr inbounds nuw %struct.ExprEvalRowtypeCache, ptr %81, i32 0, i32 0
  %83 = load ptr, ptr %82, align 8
  store ptr %83, ptr %11, align 8
  %84 = load ptr, ptr %11, align 8
  %85 = icmp eq ptr %84, null
  br i1 %85, label %103, label %86

86:                                               ; preds = %80
  %87 = load ptr, ptr %8, align 8
  %88 = getelementptr inbounds nuw %struct.ExprEvalRowtypeCache, ptr %87, i32 0, i32 1
  %89 = load i64, ptr %88, align 8
  %90 = icmp ne i64 %89, 0
  br i1 %90, label %103, label %91

91:                                               ; preds = %86
  %92 = load i32, ptr %6, align 4
  %93 = load ptr, ptr %11, align 8
  %94 = getelementptr inbounds nuw %struct.TupleDescData, ptr %93, i32 0, i32 1
  %95 = load i32, ptr %94, align 4
  %96 = icmp ne i32 %92, %95
  br i1 %96, label %103, label %97

97:                                               ; preds = %91
  %98 = load i32, ptr %7, align 4
  %99 = load ptr, ptr %11, align 8
  %100 = getelementptr inbounds nuw %struct.TupleDescData, ptr %99, i32 0, i32 2
  %101 = load i32, ptr %100, align 8
  %102 = icmp ne i32 %98, %101
  br label %103

103:                                              ; preds = %97, %91, %86, %80
  %104 = phi i1 [ true, %91 ], [ true, %86 ], [ true, %80 ], [ %102, %97 ]
  %105 = zext i1 %104 to i32
  %106 = icmp ne i32 %105, 0
  %107 = zext i1 %106 to i32
  %108 = sext i32 %107 to i64
  %109 = call i64 @llvm.expect.i64(i64 %108, i64 0)
  %110 = icmp ne i64 %109, 0
  br i1 %110, label %111, label %135

111:                                              ; preds = %103
  %112 = load i32, ptr %6, align 4
  %113 = load i32, ptr %7, align 4
  %114 = call ptr @lookup_rowtype_tupdesc(i32 noundef %112, i32 noundef %113)
  store ptr %114, ptr %11, align 8
  br label %115

115:                                              ; preds = %111
  %116 = load ptr, ptr %11, align 8
  %117 = getelementptr inbounds nuw %struct.TupleDescData, ptr %116, i32 0, i32 3
  %118 = load i32, ptr %117, align 4
  %119 = icmp sge i32 %118, 0
  br i1 %119, label %120, label %122

120:                                              ; preds = %115
  %121 = load ptr, ptr %11, align 8
  call void @DecrTupleDescRefCount(ptr noundef %121)
  br label %122

122:                                              ; preds = %120, %115
  br label %123

123:                                              ; preds = %122
  br label %124

124:                                              ; preds = %123
  %125 = load ptr, ptr %11, align 8
  %126 = load ptr, ptr %8, align 8
  %127 = getelementptr inbounds nuw %struct.ExprEvalRowtypeCache, ptr %126, i32 0, i32 0
  store ptr %125, ptr %127, align 8
  %128 = load ptr, ptr %8, align 8
  %129 = getelementptr inbounds nuw %struct.ExprEvalRowtypeCache, ptr %128, i32 0, i32 1
  store i64 0, ptr %129, align 8
  %130 = load ptr, ptr %9, align 8
  %131 = icmp ne ptr %130, null
  br i1 %131, label %132, label %134

132:                                              ; preds = %124
  %133 = load ptr, ptr %9, align 8
  store i8 1, ptr %133, align 1
  br label %134

134:                                              ; preds = %132, %124
  br label %135

135:                                              ; preds = %134, %103
  %136 = load ptr, ptr %11, align 8
  store ptr %136, ptr %5, align 8
  call void @llvm.lifetime.end.p0(i64 8, ptr %11) #11
  br label %137

137:                                              ; preds = %135, %76
  %138 = load ptr, ptr %5, align 8
  ret ptr %138
}