; Function Attrs: nounwind uwtable
define internal fastcc ptr @get_cached_rowtype(i32 noundef %0, i32 noundef %1, ptr noundef captures(none) %2, ptr noundef writeonly captures(address_is_null) %3) unnamed_addr #0 {
  %.not = icmp eq i32 %0, 2249
  %5 = load ptr, ptr %2, align 8
  %6 = icmp eq ptr %5, null
  br i1 %.not, label %32, label %7

7:                                                ; preds = %4
  br i1 %6, label %.critedge, label %8

8:                                                ; preds = %7
  %9 = getelementptr inbounds nuw i8, ptr %2, i64 8
  %10 = load i64, ptr %9, align 8
  %11 = icmp eq i64 %10, 0
  br i1 %11, label %.critedge, label %12

12:                                               ; preds = %8
  %13 = getelementptr inbounds nuw i8, ptr %5, i64 272
  %14 = load i64, ptr %13, align 8
  %.not47 = icmp eq i64 %14, %10
  br i1 %.not47, label %29, label %.critedge, !prof !15

.critedge:                                        ; preds = %8, %7, %12
  %15 = tail call ptr @lookup_type_cache(i32 noundef %0, i32 noundef 256) #18
  %16 = getelementptr inbounds nuw i8, ptr %15, i64 264
  %17 = load ptr, ptr %16, align 8
  %18 = icmp eq ptr %17, null
  br i1 %18, label %19, label %24

19:                                               ; preds = %.critedge
  %20 = tail call zeroext i1 @errstart_cold(i32 noundef 21, ptr noundef null) #19
  tail call void @llvm.assume(i1 %20)
  %21 = tail call i32 @errcode(i32 noundef 151027844) #18
  %22 = tail call ptr @format_type_be(i32 noundef %0) #18
  %23 = tail call i32 (ptr, ...) @errmsg(ptr noundef nonnull @.str.44, ptr noundef %22) #18
  tail call void @errfinish(ptr noundef nonnull @.str.1, i32 noundef 2423, ptr noundef nonnull @__func__.get_cached_rowtype) #18
  unreachable

24:                                               ; preds = %.critedge
  store ptr %15, ptr %2, align 8
  %25 = getelementptr inbounds nuw i8, ptr %15, i64 272
  %26 = load i64, ptr %25, align 8
  %27 = getelementptr inbounds nuw i8, ptr %2, i64 8
  store i64 %26, ptr %27, align 8
  %.not44 = icmp eq ptr %3, null
  br i1 %.not44, label %29, label %28

28:                                               ; preds = %24
  store i8 1, ptr %3, align 1
  br label %29

29:                                               ; preds = %24, %28, %12
  %.033 = phi ptr [ %15, %28 ], [ %15, %24 ], [ %5, %12 ]
  %30 = getelementptr inbounds nuw i8, ptr %.033, i64 264
  %31 = load ptr, ptr %30, align 8
  br label %50

32:                                               ; preds = %4
  br i1 %6, label %.critedge46, label %33

33:                                               ; preds = %32
  %34 = getelementptr inbounds nuw i8, ptr %2, i64 8
  %35 = load i64, ptr %34, align 8
  %.not41 = icmp eq i64 %35, 0
  br i1 %.not41, label %36, label %.critedge46

36:                                               ; preds = %33
  %37 = getelementptr inbounds nuw i8, ptr %5, i64 4
  %38 = load i32, ptr %37, align 4
  %.not42 = icmp eq i32 %38, 2249
  br i1 %.not42, label %39, label %.critedge46

39:                                               ; preds = %36
  %40 = getelementptr inbounds nuw i8, ptr %5, i64 8
  %41 = load i32, ptr %40, align 8
  %.not48 = icmp eq i32 %1, %41
  br i1 %.not48, label %50, label %.critedge46, !prof !15

.critedge46:                                      ; preds = %36, %33, %32, %39
  %42 = tail call ptr @lookup_rowtype_tupdesc(i32 noundef 2249, i32 noundef %1) #18
  %43 = getelementptr inbounds nuw i8, ptr %42, i64 12
  %44 = load i32, ptr %43, align 4
  %45 = icmp sgt i32 %44, -1
  br i1 %45, label %46, label %47

46:                                               ; preds = %.critedge46
  tail call void @DecrTupleDescRefCount(ptr noundef nonnull %42) #18
  br label %47

47:                                               ; preds = %46, %.critedge46
  store ptr %42, ptr %2, align 8
  %48 = getelementptr inbounds nuw i8, ptr %2, i64 8
  store i64 0, ptr %48, align 8
  %.not43 = icmp eq ptr %3, null
  br i1 %.not43, label %50, label %49

49:                                               ; preds = %47
  store i8 1, ptr %3, align 1
  br label %50

50:                                               ; preds = %39, %49, %47, %29
  %.034 = phi ptr [ %31, %29 ], [ %42, %49 ], [ %42, %47 ], [ %5, %39 ]
  ret ptr %.034
}